(dp0
S'METTS MARK'
p1
(dp2
S'to_messages'
p3
I807
sS'deferral_payments'
p4
S'NaN'
p5
sS'expenses'
p6
I94299
sS'poi'
p7
I00
sS'deferred_income'
p8
g5
sS'email_address'
p9
S'mark.metts@enron.com'
p10
sS'long_term_incentive'
p11
g5
sS'fraction_from_poi'
p12
F4.708798017348203
sS'restricted_stock_deferred'
p13
g5
sS'shared_receipt_with_poi'
p14
I702
sS'loan_advances'
p15
g5
sS'from_messages'
p16
I29
sS'other'
p17
I1740
sS'director_fees'
p18
g5
sS'bonus'
p19
I600000
sS'total_stock_value'
p20
I585062
sS'from_poi_to_this_person'
p21
I38
sS'from_this_person_to_poi'
p22
I1
sS'restricted_stock'
p23
I585062
sS'combined_poi_communications'
p24
F8.157073879417169
sS'salary'
p25
I365788
sS'total_payments'
p26
I1061827
sS'fraction_to_poi'
p27
F3.4482758620689653
sS'exercised_stock_options'
p28
g5
ssS'BAXTER JOHN C'
p29
(dp30
g3
g5
sg4
I1295738
sg6
I11200
sg7
I00
sg8
I-1386055
sg9
g5
sg11
I1586055
sg12
F0.0
sg13
g5
sg14
g5
sg15
g5
sg16
g5
sg17
I2660303
sg18
g5
sg19
I1200000
sg20
I10623258
sg21
g5
sg22
g5
sg23
I3942714
sg24
F0.0
sg25
I267102
sg26
I5634343
sg27
F0.0
sg28
I6680544
ssS'ELLIOTT STEVEN'
p31
(dp32
g3
g5
sg4
g5
sg6
I78552
sg7
I00
sg8
I-400729
sg9
S'steven.elliott@enron.com'
p33
sg11
g5
sg12
F0.0
sg13
g5
sg14
g5
sg15
g5
sg16
g5
sg17
I12961
sg18
g5
sg19
I350000
sg20
I6678735
sg21
g5
sg22
g5
sg23
I1788391
sg24
F0.0
sg25
I170941
sg26
I211725
sg27
F0.0
sg28
I4890344
ssS'CORDES WILLIAM R'
p34
(dp35
g3
I764
sg4
g5
sg6
g5
sg7
I00
sg8
g5
sg9
S'bill.cordes@enron.com'
p36
sg11
g5
sg12
F1.3089005235602094
sg13
g5
sg14
I58
sg15
g5
sg16
I12
sg17
g5
sg18
g5
sg19
g5
sg20
I1038185
sg21
I10
sg22
I0
sg23
I386335
sg24
F1.3089005235602094
sg25
g5
sg26
g5
sg27
F0.0
sg28
I651850
ssS'HANNON KEVIN P'
p37
(dp38
g3
I1045
sg4
g5
sg6
I34039
sg7
I01
sg8
I-3117011
sg9
S'kevin.hannon@enron.com'
p39
sg11
I1617011
sg12
F3.062200956937799
sg13
g5
sg14
I1035
sg15
g5
sg16
I32
sg17
I11350
sg18
g5
sg19
I1500000
sg20
I6391065
sg21
I32
sg22
I21
sg23
I853064
sg24
F68.6872009569378
sg25
I243293
sg26
I288682
sg27
F65.625
sg28
I5538001
ssS'MORDAUNT KRISTINA M'
p40
(dp41
g3
g5
sg4
g5
sg6
I35018
sg7
I00
sg8
g5
sg9
S'kristina.mordaunt@enron.com'
p42
sg11
g5
sg12
F0.0
sg13
g5
sg14
g5
sg15
g5
sg16
g5
sg17
I1411
sg18
g5
sg19
I325000
sg20
I208510
sg21
g5
sg22
g5
sg23
I208510
sg24
F0.0
sg25
I267093
sg26
I628522
sg27
F0.0
sg28
g5
ssS'MEYER ROCKFORD G'
p43
(dp44
g3
I232
sg4
I1848227
sg6
g5
sg7
I00
sg8
g5
sg9
S'rockford.meyer@enron.com'
p45
sg11
g5
sg12
F0.0
sg13
g5
sg14
I22
sg15
g5
sg16
I28
sg17
g5
sg18
g5
sg19
g5
sg20
I955873
sg21
I0
sg22
I0
sg23
I462384
sg24
F0.0
sg25
g5
sg26
I1848227
sg27
F0.0
sg28
I493489
ssS'MCMAHON JEFFREY'
p46
(dp47
g3
I2355
sg4
g5
sg6
I137108
sg7
I00
sg8
g5
sg9
S'jeffrey.mcmahon@enron.com'
p48
sg11
I694862
sg12
F2.4628450106157116
sg13
g5
sg14
I2228
sg15
g5
sg16
I48
sg17
I297353
sg18
g5
sg19
I2600000
sg20
I1662855
sg21
I58
sg22
I26
sg23
I558801
sg24
F56.62951167728237
sg25
I370448
sg26
I4099771
sg27
F54.166666666666664
sg28
I1104054
ssS'HORTON STANLEY C'
p49
(dp50
g3
I2350
sg4
I3131860
sg6
g5
sg7
I00
sg8
g5
sg9
S'stanley.horton@enron.com'
p51
sg11
g5
sg12
F1.872340425531915
sg13
g5
sg14
I1074
sg15
g5
sg16
I1073
sg17
g5
sg18
g5
sg19
g5
sg20
I7256648
sg21
I44
sg22
I15
sg23
I2046079
sg24
F3.270290099343658
sg25
g5
sg26
I3131860
sg27
F1.3979496738117427
sg28
I5210569
ssS'PIPER GREGORY F'
p52
(dp53
g3
I1238
sg4
I1130036
sg6
I43057
sg7
I00
sg8
I-33333
sg9
S'greg.piper@enron.com'
p54
sg11
g5
sg12
F4.92730210016155
sg13
I-409554
sg14
I742
sg15
g5
sg16
I222
sg17
I778
sg18
g5
sg19
I400000
sg20
I880290
sg21
I61
sg22
I48
sg23
I409554
sg24
F26.548923721783172
sg25
I197091
sg26
I1737629
sg27
F21.62162162162162
sg28
I880290
ssS'HUMPHREY GENE E'
p55
(dp56
g3
I128
sg4
I2964506
sg6
I4994
sg7
I00
sg8
g5
sg9
S'gene.humphrey@enron.com'
p57
sg11
g5
sg12
F7.8125
sg13
g5
sg14
I119
sg15
g5
sg16
I17
sg17
g5
sg18
g5
sg19
g5
sg20
I2282768
sg21
I10
sg22
I17
sg23
g5
sg24
F107.8125
sg25
I130724
sg26
I3100224
sg27
F100.0
sg28
I2282768
ssS'UMANOFF ADAM S'
p58
(dp59
g3
I111
sg4
g5
sg6
I53122
sg7
I00
sg8
g5
sg9
S'adam.umanoff@enron.com'
p60
sg11
g5
sg12
F10.81081081081081
sg13
g5
sg14
I41
sg15
g5
sg16
I18
sg17
g5
sg18
g5
sg19
I788750
sg20
g5
sg21
I12
sg22
I0
sg23
g5
sg24
F10.81081081081081
sg25
I288589
sg26
I1130461
sg27
F0.0
sg28
g5
ssS'BLACHMAN JEREMY M'
p61
(dp62
g3
I2475
sg4
g5
sg6
I84208
sg7
I00
sg8
g5
sg9
S'jeremy.blachman@enron.com'
p63
sg11
I831809
sg12
F1.0101010101010102
sg13
g5
sg14
I2326
sg15
g5
sg16
I14
sg17
I272
sg18
g5
sg19
I850000
sg20
I954354
sg21
I25
sg22
I2
sg23
I189041
sg24
F15.295815295815295
sg25
I248546
sg26
I2014835
sg27
F14.285714285714285
sg28
I765313
ssS'SUNDE MARTIN'
p64
(dp65
g3
I2647
sg4
g5
sg6
g5
sg7
I00
sg8
g5
sg9
S'marty.sunde@enron.com'
p66
sg11
I476451
sg12
F1.3978088401964488
sg13
g5
sg14
I2565
sg15
g5
sg16
I38
sg17
I111122
sg18
g5
sg19
I700000
sg20
I698920
sg21
I37
sg22
I13
sg23
I698920
sg24
F35.60833515598592
sg25
I257486
sg26
I1545059
sg27
F34.21052631578947
sg28
g5
ssS'GIBBS DANA R'
p67
(dp68
g3
I169
sg4
I504610
sg6
g5
sg7
I00
sg8
g5
sg9
S'dana.gibbs@enron.com'
p69
sg11
I461912
sg12
F0.0
sg13
g5
sg14
I23
sg15
g5
sg16
I12
sg17
g5
sg18
g5
sg19
g5
sg20
I2218275
sg21
I0
sg22
I0
sg23
g5
sg24
F0.0
sg25
g5
sg26
I966522
sg27
F0.0
sg28
I2218275
ssS'LOWRY CHARLES P'
p70
(dp71
g3
g5
sg4
g5
sg6
g5
sg7
I00
sg8
g5
sg9
g5
sg11
g5
sg12
F0.0
sg13
I-153686
sg14
g5
sg15
g5
sg16
g5
sg17
g5
sg18
g5
sg19
g5
sg20
I372205
sg21
g5
sg22
g5
sg23
I153686
sg24
F0.0
sg25
g5
sg26
g5
sg27
F0.0
sg28
I372205
ssS'COLWELL WESLEY'
p72
(dp73
g3
I1758
sg4
I27610
sg6
I16514
sg7
I01
sg8
I-144062
sg9
S'wes.colwell@enron.com'
p74
sg11
g5
sg12
F13.651877133105803
sg13
g5
sg14
I1132
sg15
g5
sg16
I40
sg17
I101740
sg18
g5
sg19
I1200000
sg20
I698242
sg21
I240
sg22
I11
sg23
I698242
sg24
F41.151877133105806
sg25
I288542
sg26
I1490344
sg27
F27.500000000000004
sg28
g5
ssS'MULLER MARK S'
p75
(dp76
g3
I136
sg4
I842924
sg6
g5
sg7
I00
sg8
I-719000
sg9
S's..muller@enron.com'
p77
sg11
I1725545
sg12
F8.823529411764707
sg13
g5
sg14
I114
sg15
g5
sg16
I16
sg17
I947
sg18
g5
sg19
I1100000
sg20
I1416848
sg21
I12
sg22
I0
sg23
I360528
sg24
F8.823529411764707
sg25
I251654
sg26
I3202070
sg27
F0.0
sg28
I1056320
ssS'JACKSON CHARLENE R'
p78
(dp79
g3
I258
sg4
g5
sg6
I10181
sg7
I00
sg8
g5
sg9
S'charlene.jackson@enron.com'
p80
sg11
g5
sg12
F9.689922480620156
sg13
g5
sg14
I117
sg15
g5
sg16
I56
sg17
I2435
sg18
g5
sg19
I250000
sg20
I725735
sg21
I25
sg22
I19
sg23
I540672
sg24
F43.618493909191585
sg25
I288558
sg26
I551174
sg27
F33.92857142857143
sg28
I185063
ssS'WESTFAHL RICHARD K'
p81
(dp82
g3
g5
sg4
g5
sg6
I51870
sg7
I00
sg8
I-10800
sg9
S'dick.westfahl@enron.com'
p83
sg11
I256191
sg12
F0.0
sg13
g5
sg14
g5
sg15
g5
sg16
g5
sg17
I401130
sg18
g5
sg19
g5
sg20
I384930
sg21
g5
sg22
g5
sg23
I384930
sg24
F0.0
sg25
I63744
sg26
I762135
sg27
F0.0
sg28
g5
ssS'WALTERS GARETH W'
p84
(dp85
g3
g5
sg4
I53625
sg6
I33785
sg7
I00
sg8
g5
sg9
g5
sg11
g5
sg12
F0.0
sg13
g5
sg14
g5
sg15
g5
sg16
g5
sg17
g5
sg18
g5
sg19
g5
sg20
I1030329
sg21
g5
sg22
g5
sg23
g5
sg24
F0.0
sg25
g5
sg26
I87410
sg27
F0.0
sg28
I1030329
ssS'WALLS JR ROBERT H'
p86
(dp87
g3
I671
sg4
g5
sg6
I50936
sg7
I00
sg8
g5
sg9
S'rob.walls@enron.com'
p88
sg11
I540751
sg12
F2.533532041728763
sg13
g5
sg14
I215
sg15
g5
sg16
I146
sg17
I2
sg18
g5
sg19
I850000
sg20
I5898997
sg21
I17
sg22
I0
sg23
I1552453
sg24
F2.533532041728763
sg25
I357091
sg26
I1798780
sg27
F0.0
sg28
I4346544
ssS'KITCHEN LOUISE'
p89
(dp90
g3
I8305
sg4
g5
sg6
I5774
sg7
I00
sg8
g5
sg9
S'louise.kitchen@enron.com'
p91
sg11
g5
sg12
F3.0222757375075253
sg13
g5
sg14
I3669
sg15
g5
sg16
I1728
sg17
I93925
sg18
g5
sg19
I3100000
sg20
I547143
sg21
I251
sg22
I194
sg23
I466101
sg24
F14.249127589359377
sg25
I271442
sg26
I3471141
sg27
F11.226851851851851
sg28
I81042
ssS'CHAN RONNIE'
p92
(dp93
g3
g5
sg4
g5
sg6
g5
sg7
I00
sg8
I-98784
sg9
g5
sg11
g5
sg12
F0.0
sg13
I-32460
sg14
g5
sg15
g5
sg16
g5
sg17
g5
sg18
I98784
sg19
g5
sg20
g5
sg21
g5
sg22
g5
sg23
I32460
sg24
F0.0
sg25
g5
sg26
g5
sg27
F0.0
sg28
g5
ssS'BELFER ROBERT'
p94
(dp95
S'to_messages'
p96
S'NaN'
p97
sS'deferral_payments'
p98
g97
sS'expenses'
p99
I3285
sS'poi'
p100
I00
sS'long_term_incentive'
p101
g97
sS'email_address'
p102
g97
sS'from_poi_to_this_person'
p103
g97
sS'deferred_income'
p104
I-102500
sg12
F0.0
sS'restricted_stock_deferred'
p105
I44093
sS'shared_receipt_with_poi'
p106
g97
sS'loan_advances'
p107
g97
sS'from_messages'
p108
g97
sS'other'
p109
g97
sS'director_fees'
p110
I102500
sS'bonus'
p111
g97
sS'total_stock_value'
p112
g97
sS'from_this_person_to_poi'
p113
g97
sS'restricted_stock'
p114
I-44093
sg24
F0.0
sS'salary'
p115
g97
sS'total_payments'
p116
I3285
sg27
F0.0
sS'exercised_stock_options'
p117
g97
ssS'SHANKMAN JEFFREY A'
p118
(dp119
g3
I3221
sg4
g5
sg6
I178979
sg7
I00
sg8
g5
sg9
S'jeffrey.shankman@enron.com'
p120
sg11
I554422
sg12
F2.9183483390251475
sg13
g5
sg14
I1730
sg15
g5
sg16
I2681
sg17
I1191
sg18
g5
sg19
I2000000
sg20
I2072035
sg21
I94
sg22
I83
sg23
I630137
sg24
F6.014208092848348
sg25
I304110
sg26
I3038702
sg27
F3.0958597538232002
sg28
I1441898
ssS'WODRASKA JOHN'
p121
(dp122
g3
g5
sg4
g5
sg6
g5
sg7
I00
sg8
g5
sg9
S'john.wodraska@enron.com'
p123
sg11
g5
sg12
F0.0
sg13
g5
sg14
g5
sg15
g5
sg16
g5
sg17
I189583
sg18
g5
sg19
g5
sg20
g5
sg21
g5
sg22
g5
sg23
g5
sg24
F0.0
sg25
g5
sg26
I189583
sg27
F0.0
sg28
g5
ssS'BERGSIEKER RICHARD P'
p124
(dp125
g3
I383
sg4
g5
sg6
I59175
sg7
I00
sg8
I-485813
sg9
S'rick.bergsieker@enron.com'
p126
sg11
I180250
sg12
F1.0443864229765014
sg13
g5
sg14
I233
sg15
g5
sg16
I59
sg17
I427316
sg18
g5
sg19
I250000
sg20
I659249
sg21
I4
sg22
I0
sg23
I659249
sg24
F1.0443864229765014
sg25
I187922
sg26
I618850
sg27
F0.0
sg28
g5
ssS'URQUHART JOHN A'
p127
(dp128
g3
g5
sg4
g5
sg6
I228656
sg7
I00
sg8
I-36666
sg9
g5
sg11
g5
sg12
F0.0
sg13
g5
sg14
g5
sg15
g5
sg16
g5
sg17
g5
sg18
I36666
sg19
g5
sg20
g5
sg21
g5
sg22
g5
sg23
g5
sg24
F0.0
sg25
g5
sg26
I228656
sg27
F0.0
sg28
g5
ssS'BIBI PHILIPPE A'
p129
(dp130
g3
I1607
sg4
g5
sg6
I38559
sg7
I00
sg8
g5
sg9
S'philippe.bibi@enron.com'
p131
sg11
I369721
sg12
F1.4312383322962041
sg13
g5
sg14
I1336
sg15
g5
sg16
I40
sg17
I425688
sg18
g5
sg19
I1000000
sg20
I1843816
sg21
I23
sg22
I8
sg23
I378082
sg24
F21.431238332296203
sg25
I213625
sg26
I2047593
sg27
F20.0
sg28
I1465734
ssS'RIEKER PAULA H'
p132
(dp133
g3
I1328
sg4
I214678
sg6
I33271
sg7
I01
sg8
I-100000
sg9
S'paula.rieker@enron.com'
p134
sg11
g5
sg12
F2.635542168674699
sg13
g5
sg14
I1258
sg15
g5
sg16
I82
sg17
I1950
sg18
g5
sg19
I700000
sg20
I1918887
sg21
I35
sg22
I48
sg23
I283649
sg24
F61.17212753452835
sg25
I249201
sg26
I1099100
sg27
F58.536585365853654
sg28
I1635238
ssS'WHALEY DAVID A'
p135
(dp136
g3
g5
sg4
g5
sg6
g5
sg7
I00
sg8
g5
sg9
g5
sg11
g5
sg12
F0.0
sg13
g5
sg14
g5
sg15
g5
sg16
g5
sg17
g5
sg18
g5
sg19
g5
sg20
I98718
sg21
g5
sg22
g5
sg23
g5
sg24
F0.0
sg25
g5
sg26
g5
sg27
F0.0
sg28
I98718
ssS'BECK SALLY W'
p137
(dp138
g3
I7315
sg4
g5
sg6
I37172
sg7
I00
sg8
g5
sg9
S'sally.beck@enron.com'
p139
sg11
g5
sg12
F1.9685577580314422
sg13
g5
sg14
I2639
sg15
g5
sg16
I4343
sg17
I566
sg18
g5
sg19
I700000
sg20
I126027
sg21
I144
sg22
I386
sg23
I126027
sg24
F10.856423288770564
sg25
I231330
sg26
I969068
sg27
F8.887865530739122
sg28
g5
ssS'HAUG DAVID L'
p140
(dp141
g3
I573
sg4
g5
sg6
I475
sg7
I00
sg8
g5
sg9
S'david.haug@enron.com'
p142
sg11
g5
sg12
F0.6980802792321117
sg13
g5
sg14
I471
sg15
g5
sg16
I19
sg17
g5
sg18
g5
sg19
g5
sg20
I2217299
sg21
I4
sg22
I7
sg23
I2217299
sg24
F37.54018554239
sg25
g5
sg26
I475
sg27
F36.84210526315789
sg28
g5
ssS'ECHOLS JOHN B'
p143
(dp144
g3
g5
sg4
g5
sg6
I21530
sg7
I00
sg8
g5
sg9
S'john.echols@enron.com'
p145
sg11
I2234774
sg12
F0.0
sg13
g5
sg14
g5
sg15
g5
sg16
g5
sg17
I53775
sg18
g5
sg19
I200000
sg20
I1008941
sg21
g5
sg22
g5
sg23
I407503
sg24
F0.0
sg25
I182245
sg26
I2692324
sg27
F0.0
sg28
I601438
ssS'MENDELSOHN JOHN'
p146
(dp147
g3
g5
sg4
g5
sg6
I148
sg7
I00
sg8
I-103750
sg9
g5
sg11
g5
sg12
F0.0
sg13
g5
sg14
g5
sg15
g5
sg16
g5
sg17
g5
sg18
I103750
sg19
g5
sg20
g5
sg21
g5
sg22
g5
sg23
g5
sg24
F0.0
sg25
g5
sg26
I148
sg27
F0.0
sg28
g5
ssS'HICKERSON GARY J'
p148
(dp149
g3
I1320
sg4
g5
sg6
I98849
sg7
I00
sg8
g5
sg9
S'gary.hickerson@enron.com'
p150
sg11
I69223
sg12
F3.0303030303030303
sg13
g5
sg14
I900
sg15
g5
sg16
I27
sg17
I1936
sg18
g5
sg19
I1700000
sg20
I441096
sg21
I40
sg22
I1
sg23
I441096
sg24
F6.7340067340067336
sg25
I211788
sg26
I2081796
sg27
F3.7037037037037033
sg28
g5
ssS'CLINE KENNETH W'
p151
(dp152
g3
g5
sg4
g5
sg6
g5
sg7
I00
sg8
g5
sg9
g5
sg11
g5
sg12
F0.0
sg13
I-472568
sg14
g5
sg15
g5
sg16
g5
sg17
g5
sg18
g5
sg19
g5
sg20
I189518
sg21
g5
sg22
g5
sg23
I662086
sg24
F0.0
sg25
g5
sg26
g5
sg27
F0.0
sg28
g5
ssS'LEWIS RICHARD'
p153
(dp154
g3
I952
sg4
g5
sg6
g5
sg7
I00
sg8
g5
sg9
S'richard.lewis@enron.com'
p155
sg11
g5
sg12
F1.050420168067227
sg13
g5
sg14
I739
sg15
g5
sg16
I26
sg17
g5
sg18
g5
sg19
g5
sg20
I850477
sg21
I10
sg22
I0
sg23
g5
sg24
F1.050420168067227
sg25
g5
sg26
g5
sg27
F0.0
sg28
I850477
ssS'HAYES ROBERT E'
p156
(dp157
g3
I504
sg4
I7961
sg6
g5
sg7
I00
sg8
g5
sg9
S'robert.hayes@enron.com'
p158
sg11
g5
sg12
F3.1746031746031744
sg13
g5
sg14
I50
sg15
g5
sg16
I12
sg17
g5
sg18
g5
sg19
g5
sg20
I151418
sg21
I16
sg22
I0
sg23
I151418
sg24
F3.1746031746031744
sg25
g5
sg26
I7961
sg27
F0.0
sg28
g5
ssS'MCCARTY DANNY J'
p159
(dp160
g3
I1433
sg4
g5
sg6
g5
sg7
I00
sg8
g5
sg9
S'danny.mccarty@enron.com'
p161
sg11
g5
sg12
F1.7445917655268668
sg13
g5
sg14
I508
sg15
g5
sg16
I215
sg17
g5
sg18
g5
sg19
g5
sg20
I758931
sg21
I25
sg22
I2
sg23
I94556
sg24
F2.6748243236664018
sg25
g5
sg26
g5
sg27
F0.9302325581395349
sg28
I664375
ssS'KOPPER MICHAEL J'
p162
(dp163
g3
g5
sg4
g5
sg6
I118134
sg7
I01
sg8
g5
sg9
S'michael.kopper@enron.com'
p164
sg11
I602671
sg12
F0.0
sg13
g5
sg14
g5
sg15
g5
sg16
g5
sg17
I907502
sg18
g5
sg19
I800000
sg20
I985032
sg21
g5
sg22
g5
sg23
I985032
sg24
F0.0
sg25
I224305
sg26
I2652612
sg27
F0.0
sg28
g5
ssS'LEFF DANIEL P'
p165
(dp166
g3
I2822
sg4
g5
sg6
g5
sg7
I00
sg8
g5
sg9
S'dan.leff@enron.com'
p167
sg11
I1387399
sg12
F2.374202693125443
sg13
g5
sg14
I2672
sg15
g5
sg16
I63
sg17
I3083
sg18
g5
sg19
I1000000
sg20
I360528
sg21
I67
sg22
I14
sg23
I360528
sg24
F24.596424915347665
sg25
I273746
sg26
I2664228
sg27
F22.22222222222222
sg28
g5
ssS'LAVORATO JOHN J'
p168
(dp169
g3
I7259
sg4
g5
sg6
I49537
sg7
I00
sg8
g5
sg9
S'john.lavorato@enron.com'
p170
sg11
I2035380
sg12
F7.273729163796666
sg13
g5
sg14
I3962
sg15
g5
sg16
I2585
sg17
I1552
sg18
g5
sg19
I8000000
sg20
I5167144
sg21
I528
sg22
I411
sg23
I1008149
sg24
F23.173148893003628
sg25
I339288
sg26
I10425757
sg27
F15.899419729206961
sg28
I4158995
ssS'BERBERIAN DAVID'
p171
(dp172
g3
g5
sg4
g5
sg6
I11892
sg7
I00
sg8
g5
sg9
S'david.berberian@enron.com'
p173
sg11
g5
sg12
F0.0
sg13
g5
sg14
g5
sg15
g5
sg16
g5
sg17
g5
sg18
g5
sg19
g5
sg20
I2493616
sg21
g5
sg22
g5
sg23
I869220
sg24
F0.0
sg25
I216582
sg26
I228474
sg27
F0.0
sg28
I1624396
ssS'DETMERING TIMOTHY J'
p174
(dp175
g3
g5
sg4
I875307
sg6
I52255
sg7
I00
sg8
I-775241
sg9
S'timothy.detmering@enron.com'
p176
sg11
I415657
sg12
F0.0
sg13
I-315068
sg14
g5
sg15
g5
sg16
g5
sg17
I1105
sg18
g5
sg19
I425000
sg20
I2027865
sg21
g5
sg22
g5
sg23
I315068
sg24
F0.0
sg25
I210500
sg26
I1204583
sg27
F0.0
sg28
I2027865
ssS'WAKEHAM JOHN'
p177
(dp178
g3
g5
sg4
g5
sg6
I103773
sg7
I00
sg8
g5
sg9
g5
sg11
g5
sg12
F0.0
sg13
g5
sg14
g5
sg15
g5
sg16
g5
sg17
g5
sg18
I109298
sg19
g5
sg20
g5
sg21
g5
sg22
g5
sg23
g5
sg24
F0.0
sg25
g5
sg26
I213071
sg27
F0.0
sg28
g5
ssS'POWERS WILLIAM'
p179
(dp180
g3
I653
sg4
g5
sg6
g5
sg7
I00
sg8
I-17500
sg9
S'ken.powers@enron.com'
p181
sg11
g5
sg12
F0.0
sg13
g5
sg14
I12
sg15
g5
sg16
I26
sg17
g5
sg18
I17500
sg19
g5
sg20
g5
sg21
I0
sg22
I0
sg23
g5
sg24
F0.0
sg25
g5
sg26
g5
sg27
F0.0
sg28
g5
ssS'GOLD JOSEPH'
p182
(dp183
g3
g5
sg4
g5
sg6
g5
sg7
I00
sg8
g5
sg9
S'joe.gold@enron.com'
p184
sg11
I304805
sg12
F0.0
sg13
g5
sg14
g5
sg15
g5
sg16
g5
sg17
I819288
sg18
g5
sg19
I750000
sg20
I877611
sg21
g5
sg22
g5
sg23
I441096
sg24
F0.0
sg25
I272880
sg26
I2146973
sg27
F0.0
sg28
I436515
ssS'BANNANTINE JAMES M'
p185
(dp186
g3
I566
sg4
g5
sg6
I56301
sg7
I00
sg8
I-5104
sg9
S'james.bannantine@enron.com'
p187
sg11
g5
sg12
F6.890459363957597
sg13
I-560222
sg14
I465
sg15
g5
sg16
I29
sg17
I864523
sg18
g5
sg19
g5
sg20
I5243487
sg21
I39
sg22
I0
sg23
I1757552
sg24
F6.890459363957597
sg25
I477
sg26
I916197
sg27
F0.0
sg28
I4046157
ssS'DUNCAN JOHN H'
p188
(dp189
g3
g5
sg4
g5
sg6
g5
sg7
I00
sg8
I-25000
sg9
g5
sg11
g5
sg12
F0.0
sg13
g5
sg14
g5
sg15
g5
sg16
g5
sg17
g5
sg18
I102492
sg19
g5
sg20
I371750
sg21
g5
sg22
g5
sg23
g5
sg24
F0.0
sg25
g5
sg26
I77492
sg27
F0.0
sg28
I371750
ssS'SHAPIRO RICHARD S'
p190
(dp191
g3
I15149
sg4
g5
sg6
I137767
sg7
I00
sg8
g5
sg9
S'richard.shapiro@enron.com'
p192
sg11
g5
sg12
F0.48848108786058486
sg13
g5
sg14
I4527
sg15
g5
sg16
I1215
sg17
I705
sg18
g5
sg19
I650000
sg20
I987001
sg21
I74
sg22
I65
sg23
I379164
sg24
F5.838275326543712
sg25
I269076
sg26
I1057548
sg27
F5.349794238683128
sg28
I607837
ssS'SHERRIFF JOHN R'
p193
(dp194
g3
I3187
sg4
g5
sg6
g5
sg7
I00
sg8
g5
sg9
S'john.sherriff@enron.com'
p195
sg11
I554422
sg12
F0.8785691873235018
sg13
g5
sg14
I2103
sg15
g5
sg16
I92
sg17
I1852186
sg18
g5
sg19
I1500000
sg20
I3128982
sg21
I28
sg22
I23
sg23
I1293424
sg24
F25.878569187323503
sg25
I428780
sg26
I4335388
sg27
F25.0
sg28
I1835558
ssS'SHELBY REX'
p196
(dp197
g3
I225
sg4
g5
sg6
I22884
sg7
I01
sg8
I-4167
sg9
S'rex.shelby@enron.com'
p198
sg11
g5
sg12
F5.777777777777778
sg13
g5
sg14
I91
sg15
g5
sg16
I39
sg17
I1573324
sg18
g5
sg19
I200000
sg20
I2493616
sg21
I13
sg22
I14
sg23
I869220
sg24
F41.675213675213676
sg25
I211844
sg26
I2003885
sg27
F35.8974358974359
sg28
I1624396
ssS'LEMAISTRE CHARLES'
p199
(dp200
g3
g5
sg4
g5
sg6
g5
sg7
I00
sg8
I-25000
sg9
g5
sg11
g5
sg12
F0.0
sg13
g5
sg14
g5
sg15
g5
sg16
g5
sg17
g5
sg18
I112492
sg19
g5
sg20
I412878
sg21
g5
sg22
g5
sg23
g5
sg24
F0.0
sg25
g5
sg26
I87492
sg27
F0.0
sg28
I412878
ssS'DEFFNER JOSEPH M'
p201
(dp202
g3
I714
sg4
g5
sg6
I41626
sg7
I00
sg8
g5
sg9
S'joseph.deffner@enron.com'
p203
sg11
I335349
sg12
F16.106442577030812
sg13
g5
sg14
I552
sg15
g5
sg16
I74
sg17
I25553
sg18
g5
sg19
I600000
sg20
I159211
sg21
I115
sg22
I4
sg23
I141833
sg24
F21.511847982436215
sg25
I206121
sg26
I1208649
sg27
F5.405405405405405
sg28
I17378
ssS'KISHKILL JOSEPH G'
p204
(dp205
g3
g5
sg4
g5
sg6
I116335
sg7
I00
sg8
I-51042
sg9
S'joe.kishkill@enron.com'
p206
sg11
g5
sg12
F0.0
sg13
g5
sg14
g5
sg15
g5
sg16
g5
sg17
I465357
sg18
g5
sg19
g5
sg20
I1034346
sg21
g5
sg22
g5
sg23
I1034346
sg24
F0.0
sg25
I174246
sg26
I704896
sg27
F0.0
sg28
g5
ssS'WHALLEY LAWRENCE G'
p207
(dp208
g3
I6019
sg4
g5
sg6
I57838
sg7
I00
sg8
g5
sg9
S'greg.whalley@enron.com'
p209
sg11
I808346
sg12
F3.090214321315833
sg13
g5
sg14
I3920
sg15
g5
sg16
I556
sg17
I301026
sg18
g5
sg19
I3000000
sg20
I6079137
sg21
I186
sg22
I24
sg23
I2796177
sg24
F7.406761083905761
sg25
I510364
sg26
I4677574
sg27
F4.316546762589928
sg28
I3282960
ssS'MCCONNELL MICHAEL S'
p210
(dp211
g3
I3329
sg4
g5
sg6
I81364
sg7
I00
sg8
g5
sg9
S'mike.mcconnell@enron.com'
p212
sg11
I554422
sg12
F2.763592670471613
sg13
g5
sg14
I2189
sg15
g5
sg16
I2742
sg17
I540
sg18
g5
sg19
I1100000
sg20
I3101279
sg21
I92
sg22
I194
sg23
I1478269
sg24
F9.838720314527048
sg25
I365038
sg26
I2101364
sg27
F7.075127644055435
sg28
I1623010
ssS'PIRO JIM'
p213
(dp214
g3
I58
sg4
g5
sg6
g5
sg7
I00
sg8
g5
sg9
S'jim.piro@enron.com'
p215
sg11
g5
sg12
F0.0
sg13
g5
sg14
I3
sg15
g5
sg16
I16
sg17
g5
sg18
g5
sg19
g5
sg20
I47304
sg21
I0
sg22
I1
sg23
I47304
sg24
F6.25
sg25
g5
sg26
g5
sg27
F6.25
sg28
g5
ssS'DELAINEY DAVID W'
p216
(dp217
g3
I3093
sg4
g5
sg6
I86174
sg7
I01
sg8
g5
sg9
S'david.delainey@enron.com'
p218
sg11
I1294981
sg12
F2.133850630455868
sg13
g5
sg14
I2097
sg15
g5
sg16
I3069
sg17
I1661
sg18
g5
sg19
I3000000
sg20
I3614261
sg21
I66
sg22
I609
sg23
I1323148
sg24
F21.97744789340797
sg25
I365163
sg26
I4747979
sg27
F19.843597262952102
sg28
I2291113
ssS'SULLIVAN-SHAKLOVITZ COLLEEN'
p219
(dp220
g3
g5
sg4
I181993
sg6
g5
sg7
I00
sg8
g5
sg9
g5
sg11
I554422
sg12
F0.0
sg13
g5
sg14
g5
sg15
g5
sg16
g5
sg17
I162
sg18
g5
sg19
I100000
sg20
I1362375
sg21
g5
sg22
g5
sg23
g5
sg24
F0.0
sg25
I162779
sg26
I999356
sg27
F0.0
sg28
I1362375
ssS'WROBEL BRUCE'
p221
(dp222
g3
g5
sg4
g5
sg6
g5
sg7
I00
sg8
g5
sg9
g5
sg11
g5
sg12
F0.0
sg13
g5
sg14
g5
sg15
g5
sg16
g5
sg17
g5
sg18
g5
sg19
g5
sg20
I139130
sg21
g5
sg22
g5
sg23
g5
sg24
F0.0
sg25
g5
sg26
g5
sg27
F0.0
sg28
I139130
ssS'LINDHOLM TOD A'
p223
(dp224
g3
g5
sg4
I204075
sg6
I57727
sg7
I00
sg8
g5
sg9
S'tod.lindholm@enron.com'
p225
sg11
I175000
sg12
F0.0
sg13
g5
sg14
g5
sg15
g5
sg16
g5
sg17
I2630
sg18
g5
sg19
I200000
sg20
I3064208
sg21
g5
sg22
g5
sg23
I514847
sg24
F0.0
sg25
I236457
sg26
I875889
sg27
F0.0
sg28
I2549361
ssS'MEYER JEROME J'
p226
(dp227
g3
g5
sg4
g5
sg6
I2151
sg7
I00
sg8
I-38346
sg9
g5
sg11
g5
sg12
F0.0
sg13
g5
sg14
g5
sg15
g5
sg16
g5
sg17
g5
sg18
I38346
sg19
g5
sg20
g5
sg21
g5
sg22
g5
sg23
g5
sg24
F0.0
sg25
g5
sg26
I2151
sg27
F0.0
sg28
g5
ssS'LAY KENNETH L'
p228
(dp229
g3
I4273
sg4
I202911
sg6
I99832
sg7
I01
sg8
I-300000
sg9
S'kenneth.lay@enron.com'
p230
sg11
I3600000
sg12
F2.8785396676807866
sg13
g5
sg14
I2411
sg15
I81525000
sg16
I36
sg17
I10359729
sg18
g5
sg19
I7000000
sg20
I49110078
sg21
I123
sg22
I16
sg23
I14761694
sg24
F47.322984112125226
sg25
I1072321
sg26
I103559793
sg27
F44.44444444444444
sg28
I34348384
ssS'BUTTS ROBERT H'
p231
(dp232
g3
g5
sg4
g5
sg6
I9410
sg7
I00
sg8
I-75000
sg9
S'bob.butts@enron.com'
p233
sg11
I175000
sg12
F0.0
sg13
g5
sg14
g5
sg15
g5
sg16
g5
sg17
I150656
sg18
g5
sg19
I750000
sg20
I417619
sg21
g5
sg22
g5
sg23
I417619
sg24
F0.0
sg25
I261516
sg26
I1271582
sg27
F0.0
sg28
g5
ssS'OLSON CINDY K'
p234
(dp235
g3
I1184
sg4
I77716
sg6
I63791
sg7
I00
sg8
g5
sg9
S'cindy.olson@enron.com'
p236
sg11
I100000
sg12
F1.6891891891891893
sg13
g5
sg14
I856
sg15
g5
sg16
I52
sg17
I972
sg18
g5
sg19
I750000
sg20
I2606763
sg21
I20
sg22
I15
sg23
I969729
sg24
F30.535343035343033
sg25
I329078
sg26
I1321557
sg27
F28.846153846153843
sg28
I1637034
ssS'MCDONALD REBECCA'
p237
(dp238
g3
I894
sg4
g5
sg6
g5
sg7
I00
sg8
g5
sg9
S'rebecca.mcdonald@enron.com'
p239
sg11
g5
sg12
F6.0402684563758395
sg13
g5
sg14
I720
sg15
g5
sg16
I13
sg17
g5
sg18
g5
sg19
g5
sg20
I1691366
sg21
I54
sg22
I1
sg23
I934065
sg24
F13.732576148683531
sg25
g5
sg26
g5
sg27
F7.6923076923076925
sg28
I757301
ssS'CUMBERLAND MICHAEL S'
p240
(dp241
g3
g5
sg4
g5
sg6
I22344
sg7
I00
sg8
g5
sg9
g5
sg11
I275000
sg12
F0.0
sg13
g5
sg14
g5
sg15
g5
sg16
g5
sg17
I713
sg18
g5
sg19
I325000
sg20
I207940
sg21
g5
sg22
g5
sg23
I207940
sg24
F0.0
sg25
I184899
sg26
I807956
sg27
F0.0
sg28
g5
ssS'GAHN ROBERT S'
p242
(dp243
g3
g5
sg4
I73122
sg6
I50080
sg7
I00
sg8
I-1042
sg9
g5
sg11
g5
sg12
F0.0
sg13
g5
sg14
g5
sg15
g5
sg16
g5
sg17
I76547
sg18
g5
sg19
I509870
sg20
I318607
sg21
g5
sg22
g5
sg23
I235370
sg24
F0.0
sg25
I192008
sg26
I900585
sg27
F0.0
sg28
I83237
ssS'MCCLELLAN GEORGE'
p244
(dp245
g3
I1744
sg4
g5
sg6
I228763
sg7
I00
sg8
I-125000
sg9
S'george.mcclellan@enron.com'
p246
sg11
g5
sg12
F2.981651376146789
sg13
g5
sg14
I1469
sg15
g5
sg16
I49
sg17
I51587
sg18
g5
sg19
I900000
sg20
I947861
sg21
I52
sg22
I0
sg23
I441096
sg24
F2.981651376146789
sg25
I263413
sg26
I1318763
sg27
F0.0
sg28
I506765
ssS'HERMANN ROBERT J'
p247
(dp248
g3
g5
sg4
g5
sg6
I48357
sg7
I00
sg8
I-280000
sg9
S'robert.hermann@enron.com'
p249
sg11
I150000
sg12
F0.0
sg13
g5
sg14
g5
sg15
g5
sg16
g5
sg17
I416441
sg18
g5
sg19
I700000
sg20
I668132
sg21
g5
sg22
g5
sg23
I480632
sg24
F0.0
sg25
I262663
sg26
I1297461
sg27
F0.0
sg28
I187500
ssS'SCRIMSHAW MATTHEW'
p250
(dp251
g3
g5
sg4
g5
sg6
g5
sg7
I00
sg8
g5
sg9
S'matthew.scrimshaw@enron.com'
p252
sg11
g5
sg12
F0.0
sg13
g5
sg14
g5
sg15
g5
sg16
g5
sg17
g5
sg18
g5
sg19
g5
sg20
I759557
sg21
g5
sg22
g5
sg23
g5
sg24
F0.0
sg25
g5
sg26
g5
sg27
F0.0
sg28
I759557
ssS'GATHMANN WILLIAM D'
p253
(dp254
g3
g5
sg4
g5
sg6
g5
sg7
I00
sg8
g5
sg9
g5
sg11
g5
sg12
F0.0
sg13
I-72419
sg14
g5
sg15
g5
sg16
g5
sg17
g5
sg18
g5
sg19
g5
sg20
I1945360
sg21
g5
sg22
g5
sg23
I264013
sg24
F0.0
sg25
g5
sg26
g5
sg27
F0.0
sg28
I1753766
ssS'HAEDICKE MARK E'
p255
(dp256
g3
I4009
sg4
I2157527
sg6
I76169
sg7
I00
sg8
I-934484
sg9
S'mark.haedicke@enron.com'
p257
sg11
I983346
sg12
F4.489897730107259
sg13
I-329825
sg14
I1847
sg15
g5
sg16
I1941
sg17
I52382
sg18
g5
sg19
I1150000
sg20
I803094
sg21
I180
sg22
I61
sg23
I524169
sg24
F7.632607673435441
sg25
I374125
sg26
I3859065
sg27
F3.1427099433281813
sg28
I608750
ssS'BOWEN JR RAYMOND M'
p258
(dp259
g3
I1858
sg4
g5
sg6
I65907
sg7
I01
sg8
I-833
sg9
S'raymond.bowen@enron.com'
p260
sg11
I974293
sg12
F7.534983853606028
sg13
g5
sg14
I1593
sg15
g5
sg16
I27
sg17
I1621
sg18
g5
sg19
I1350000
sg20
I252055
sg21
I140
sg22
I15
sg23
I252055
sg24
F63.090539409161586
sg25
I278601
sg26
I2669589
sg27
F55.55555555555556
sg28
g5
ssS'GILLIS JOHN'
p261
(dp262
g3
g5
sg4
g5
sg6
g5
sg7
I00
sg8
g5
sg9
g5
sg11
g5
sg12
F0.0
sg13
g5
sg14
g5
sg15
g5
sg16
g5
sg17
g5
sg18
g5
sg19
g5
sg20
I85641
sg21
g5
sg22
g5
sg23
I75838
sg24
F0.0
sg25
g5
sg26
g5
sg27
F0.0
sg28
I9803
ssS'FITZGERALD JAY L'
p263
(dp264
g3
I936
sg4
g5
sg6
I23870
sg7
I00
sg8
g5
sg9
S'jay.fitzgerald@enron.com'
p265
sg11
I556416
sg12
F0.10683760683760685
sg13
g5
sg14
I723
sg15
g5
sg16
I16
sg17
I285414
sg18
g5
sg19
I350000
sg20
I1621236
sg21
I1
sg22
I8
sg23
I956775
sg24
F50.10683760683761
sg25
I199157
sg26
I1414857
sg27
F50.0
sg28
I664461
ssS'MORAN MICHAEL P'
p266
(dp267
g3
I672
sg4
g5
sg6
g5
sg7
I00
sg8
g5
sg9
S'michael.moran@enron.com'
p268
sg11
g5
sg12
F0.0
sg13
g5
sg14
I127
sg15
g5
sg16
I19
sg17
g5
sg18
g5
sg19
g5
sg20
I221141
sg21
I0
sg22
I0
sg23
I161602
sg24
F0.0
sg25
g5
sg26
g5
sg27
F0.0
sg28
I59539
ssS'REDMOND BRIAN L'
p269
(dp270
g3
I1671
sg4
g5
sg6
I14689
sg7
I00
sg8
g5
sg9
S'brian.redmond@enron.com'
p271
sg11
g5
sg12
F12.208258527827647
sg13
g5
sg14
I1063
sg15
g5
sg16
I221
sg17
g5
sg18
g5
sg19
g5
sg20
I7890324
sg21
I204
sg22
I49
sg23
I381285
sg24
F34.38020422918511
sg25
I96840
sg26
I111529
sg27
F22.171945701357465
sg28
I7509039
ssS'BAZELIDES PHILIP J'
p272
(dp273
g3
g5
sg4
I684694
sg6
g5
sg7
I00
sg8
g5
sg9
g5
sg11
I93750
sg12
F0.0
sg13
g5
sg14
g5
sg15
g5
sg16
g5
sg17
I874
sg18
g5
sg19
g5
sg20
I1599641
sg21
g5
sg22
g5
sg23
g5
sg24
F0.0
sg25
I80818
sg26
I860136
sg27
F0.0
sg28
I1599641
ssS'BELDEN TIMOTHY N'
p274
(dp275
g3
I7991
sg4
I2144013
sg6
I17355
sg7
I01
sg8
I-2334434
sg9
S'tim.belden@enron.com'
p276
sg11
g5
sg12
F2.85320986109373
sg13
g5
sg14
I5521
sg15
g5
sg16
I484
sg17
I210698
sg18
g5
sg19
I5249999
sg20
I1110705
sg21
I228
sg22
I108
sg23
I157569
sg24
F25.16725944787059
sg25
I213999
sg26
I5501630
sg27
F22.31404958677686
sg28
I953136
ssS'DURAN WILLIAM D'
p277
(dp278
g3
I904
sg4
g5
sg6
I25785
sg7
I00
sg8
g5
sg9
S'w.duran@enron.com'
p279
sg11
I1105218
sg12
F11.725663716814159
sg13
g5
sg14
I599
sg15
g5
sg16
I12
sg17
I1568
sg18
g5
sg19
I750000
sg20
I1640910
sg21
I106
sg22
I3
sg23
I189041
sg24
F36.72566371681416
sg25
I210692
sg26
I2093263
sg27
F25.0
sg28
I1451869
ssS'THORN TERENCE H'
p280
(dp281
g3
I266
sg4
I16586
sg6
I46145
sg7
I00
sg8
g5
sg9
S'terence.thorn@enron.com'
p282
sg11
I200000
sg12
F0.0
sg13
g5
sg14
I73
sg15
g5
sg16
I41
sg17
I426629
sg18
g5
sg19
g5
sg20
I4817796
sg21
I0
sg22
I0
sg23
I365320
sg24
F0.0
sg25
I222093
sg26
I911453
sg27
F0.0
sg28
I4452476
ssS'FASTOW ANDREW S'
p283
(dp284
g3
g5
sg4
g5
sg6
I55921
sg7
I01
sg8
I-1386055
sg9
S'andrew.fastow@enron.com'
p285
sg11
I1736055
sg12
F0.0
sg13
g5
sg14
g5
sg15
g5
sg16
g5
sg17
I277464
sg18
g5
sg19
I1300000
sg20
I1794412
sg21
g5
sg22
g5
sg23
I1794412
sg24
F0.0
sg25
I440698
sg26
I2424083
sg27
F0.0
sg28
g5
ssS'FOY JOE'
p286
(dp287
g3
I57
sg4
I181755
sg6
g5
sg7
I00
sg8
g5
sg9
S'tracy.foy@enron.com'
p288
sg11
g5
sg12
F0.0
sg13
g5
sg14
I2
sg15
g5
sg16
I13
sg17
g5
sg18
g5
sg19
g5
sg20
I343434
sg21
I0
sg22
I0
sg23
g5
sg24
F0.0
sg25
g5
sg26
I181755
sg27
F0.0
sg28
I343434
ssS'CALGER CHRISTOPHER F'
p289
(dp290
g3
I2598
sg4
g5
sg6
I35818
sg7
I01
sg8
I-262500
sg9
S'christopher.calger@enron.com'
p291
sg11
I375304
sg12
F7.659738260200154
sg13
g5
sg14
I2188
sg15
g5
sg16
I144
sg17
I486
sg18
g5
sg19
I1250000
sg20
I126027
sg21
I199
sg22
I25
sg23
I126027
sg24
F25.020849371311265
sg25
I240189
sg26
I1639297
sg27
F17.36111111111111
sg28
g5
ssS'RICE KENNETH D'
p292
(dp293
g3
I905
sg4
g5
sg6
I46950
sg7
I01
sg8
I-3504386
sg9
S'ken.rice@enron.com'
p294
sg11
I1617011
sg12
F4.640883977900553
sg13
g5
sg14
I864
sg15
g5
sg16
I18
sg17
I174839
sg18
g5
sg19
I1750000
sg20
I22542539
sg21
I42
sg22
I4
sg23
I2748364
sg24
F26.863106200122775
sg25
I420636
sg26
I505050
sg27
F22.22222222222222
sg28
I19794175
ssS'KAMINSKI WINCENTY J'
p295
(dp296
g3
I4607
sg4
g5
sg6
I83585
sg7
I00
sg8
g5
sg9
S'vince.kaminski@enron.com'
p297
sg11
I323466
sg12
F0.8899500759713479
sg13
g5
sg14
I583
sg15
g5
sg16
I14368
sg17
I4669
sg18
g5
sg19
I400000
sg20
I976037
sg21
I41
sg22
I171
sg23
I126027
sg24
F2.080094842118341
sg25
I275101
sg26
I1086821
sg27
F1.1901447661469933
sg28
I850010
ssS'COX DAVID'
p298
(dp299
g3
I102
sg4
g5
sg6
I27861
sg7
I00
sg8
I-41250
sg9
S'chip.cox@enron.com'
p300
sg11
g5
sg12
F0.0
sg13
g5
sg14
I71
sg15
g5
sg16
I33
sg17
I494
sg18
g5
sg19
I800000
sg20
I495633
sg21
I0
sg22
I4
sg23
I378082
sg24
F12.121212121212121
sg25
I314288
sg26
I1101393
sg27
F12.121212121212121
sg28
I117551
ssS'OVERDYKE JR JERE C'
p301
(dp302
g3
g5
sg4
g5
sg6
I18834
sg7
I00
sg8
g5
sg9
S'jere.overdyke@enron.com'
p303
sg11
I135836
sg12
F0.0
sg13
g5
sg14
g5
sg15
g5
sg16
g5
sg17
I176
sg18
g5
sg19
g5
sg20
I7307594
sg21
g5
sg22
g5
sg23
I2041016
sg24
F0.0
sg25
I94941
sg26
I249787
sg27
F0.0
sg28
I5266578
ssS'PEREIRA PAULO V. FERRAZ'
p304
(dp305
g3
g5
sg4
g5
sg6
I27942
sg7
I00
sg8
I-101250
sg9
g5
sg11
g5
sg12
F0.0
sg13
g5
sg14
g5
sg15
g5
sg16
g5
sg17
g5
sg18
I101250
sg19
g5
sg20
g5
sg21
g5
sg22
g5
sg23
g5
sg24
F0.0
sg25
g5
sg26
I27942
sg27
F0.0
sg28
g5
ssS'STABLER FRANK'
p306
(dp307
g3
g5
sg4
g5
sg6
I16514
sg7
I00
sg8
g5
sg9
S'frank.stabler@enron.com'
p308
sg11
g5
sg12
F0.0
sg13
g5
sg14
g5
sg15
g5
sg16
g5
sg17
I356071
sg18
g5
sg19
I500000
sg20
I511734
sg21
g5
sg22
g5
sg23
I511734
sg24
F0.0
sg25
I239502
sg26
I1112087
sg27
F0.0
sg28
g5
ssS'SKILLING JEFFREY K'
p309
(dp310
g3
I3627
sg4
g5
sg6
I29336
sg7
I01
sg8
g5
sg9
S'jeff.skilling@enron.com'
p311
sg11
I1920000
sg12
F2.42624758753791
sg13
g5
sg14
I2042
sg15
g5
sg16
I108
sg17
I22122
sg18
g5
sg19
I5600000
sg20
I26093672
sg21
I88
sg22
I30
sg23
I6843672
sg24
F30.204025365315687
sg25
I1111258
sg26
I8682716
sg27
F27.77777777777778
sg28
I19250000
ssS'BLAKE JR. NORMAN P'
p312
(dp313
g3
g5
sg4
g5
sg6
I1279
sg7
I00
sg8
I-113784
sg9
g5
sg11
g5
sg12
F0.0
sg13
g5
sg14
g5
sg15
g5
sg16
g5
sg17
g5
sg18
I113784
sg19
g5
sg20
g5
sg21
g5
sg22
g5
sg23
g5
sg24
F0.0
sg25
g5
sg26
I1279
sg27
F0.0
sg28
g5
ssS'SHERRICK JEFFREY B'
p314
(dp315
g3
I613
sg4
g5
sg6
g5
sg7
I00
sg8
g5
sg9
S'jeffrey.sherrick@enron.com'
p316
sg11
g5
sg12
F6.36215334420881
sg13
g5
sg14
I583
sg15
g5
sg16
I25
sg17
g5
sg18
g5
sg19
g5
sg20
I1832468
sg21
I39
sg22
I18
sg23
I405999
sg24
F78.3621533442088
sg25
g5
sg26
g5
sg27
F72.0
sg28
I1426469
ssS'PRENTICE JAMES'
p317
(dp318
g3
g5
sg4
I564348
sg6
g5
sg7
I00
sg8
g5
sg9
S'james.prentice@enron.com'
p319
sg11
g5
sg12
F0.0
sg13
g5
sg14
g5
sg15
g5
sg16
g5
sg17
g5
sg18
g5
sg19
g5
sg20
I1095040
sg21
g5
sg22
g5
sg23
I208809
sg24
F0.0
sg25
g5
sg26
I564348
sg27
F0.0
sg28
I886231
ssS'GRAY RODNEY'
p320
(dp321
g3
g5
sg4
I93585
sg6
g5
sg7
I00
sg8
g5
sg9
g5
sg11
I365625
sg12
F0.0
sg13
g5
sg14
g5
sg15
g5
sg16
g5
sg17
I680833
sg18
g5
sg19
g5
sg20
g5
sg21
g5
sg22
g5
sg23
g5
sg24
F0.0
sg25
I6615
sg26
I1146658
sg27
F0.0
sg28
g5
ssS'PICKERING MARK R'
p322
(dp323
g3
I898
sg4
g5
sg6
I31653
sg7
I00
sg8
g5
sg9
S'mark.pickering@enron.com'
p324
sg11
g5
sg12
F0.779510022271715
sg13
g5
sg14
I728
sg15
I400000
sg16
I67
sg17
g5
sg18
g5
sg19
I300000
sg20
I28798
sg21
I7
sg22
I0
sg23
g5
sg24
F0.779510022271715
sg25
I655037
sg26
I1386690
sg27
F0.0
sg28
I28798
ssS'NOLES JAMES L'
p325
(dp326
g3
g5
sg4
I774401
sg6
g5
sg7
I00
sg8
g5
sg9
g5
sg11
g5
sg12
F0.0
sg13
I-94556
sg14
g5
sg15
g5
sg16
g5
sg17
g5
sg18
g5
sg19
g5
sg20
I368705
sg21
g5
sg22
g5
sg23
I463261
sg24
F0.0
sg25
g5
sg26
I774401
sg27
F0.0
sg28
g5
ssS'KEAN STEVEN J'
p327
(dp328
g3
I12754
sg4
g5
sg6
I41953
sg7
I00
sg8
g5
sg9
S'steven.kean@enron.com'
p329
sg11
I300000
sg12
F1.0976948408342482
sg13
g5
sg14
I3639
sg15
g5
sg16
I6759
sg17
I1231
sg18
g5
sg19
I1000000
sg20
I6153642
sg21
I140
sg22
I387
sg23
I4131594
sg24
F6.823393908743702
sg25
I404338
sg26
I1747522
sg27
F5.725699067909454
sg28
I2022048
ssS'FOWLER PEGGY'
p330
(dp331
g3
I517
sg4
g5
sg6
g5
sg7
I00
sg8
g5
sg9
S'kulvinder.fowler@enron.com'
p332
sg11
g5
sg12
F0.0
sg13
g5
sg14
I10
sg15
g5
sg16
I36
sg17
g5
sg18
g5
sg19
g5
sg20
I1884748
sg21
I0
sg22
I0
sg23
I560170
sg24
F0.0
sg25
g5
sg26
g5
sg27
F0.0
sg28
I1324578
ssS'WASAFF GEORGE'
p333
(dp334
g3
I400
sg4
I831299
sg6
g5
sg7
I00
sg8
I-583325
sg9
S'george.wasaff@enron.com'
p335
sg11
I200000
sg12
F5.5
sg13
g5
sg14
I337
sg15
g5
sg16
I30
sg17
I1425
sg18
g5
sg19
I325000
sg20
I2056427
sg21
I22
sg22
I7
sg23
I388167
sg24
F28.833333333333332
sg25
I259996
sg26
I1034395
sg27
F23.333333333333332
sg28
I1668260
ssS'WHITE JR THOMAS E'
p336
(dp337
g3
g5
sg4
g5
sg6
I81353
sg7
I00
sg8
g5
sg9
S'thomas.white@enron.com'
p338
sg11
g5
sg12
F0.0
sg13
g5
sg14
g5
sg15
g5
sg16
g5
sg17
I1085463
sg18
g5
sg19
I450000
sg20
I15144123
sg21
g5
sg22
g5
sg23
I13847074
sg24
F0.0
sg25
I317543
sg26
I1934359
sg27
F0.0
sg28
I1297049
ssS'CHRISTODOULOU DIOMEDES'
p339
(dp340
g3
g5
sg4
g5
sg6
g5
sg7
I00
sg8
g5
sg9
S'diomedes.christodoulou@enron.com'
p341
sg11
g5
sg12
F0.0
sg13
g5
sg14
g5
sg15
g5
sg16
g5
sg17
g5
sg18
g5
sg19
g5
sg20
I6077885
sg21
g5
sg22
g5
sg23
I950730
sg24
F0.0
sg25
g5
sg26
g5
sg27
F0.0
sg28
I5127155
ssS'ALLEN PHILLIP K'
p342
(dp343
g3
I2902
sg4
I2869717
sg6
I13868
sg7
I00
sg8
I-3081055
sg9
S'phillip.allen@enron.com'
p344
sg11
I304805
sg12
F1.6195727084769125
sg13
I-126027
sg14
I1407
sg15
g5
sg16
I2195
sg17
I152
sg18
g5
sg19
I4175000
sg20
I1729541
sg21
I47
sg22
I65
sg23
I126027
sg24
F4.580848334900603
sg25
I201955
sg26
I4484442
sg27
F2.9612756264236904
sg28
I1729541
ssS'SHARP VICTORIA T'
p345
(dp346
g3
I3136
sg4
I187469
sg6
I116337
sg7
I00
sg8
g5
sg9
S'vicki.sharp@enron.com'
p347
sg11
I422158
sg12
F0.7653061224489796
sg13
g5
sg14
I2477
sg15
g5
sg16
I136
sg17
I2401
sg18
g5
sg19
I600000
sg20
I494136
sg21
I24
sg22
I6
sg23
I213063
sg24
F5.177070828331333
sg25
I248146
sg26
I1576511
sg27
F4.411764705882353
sg28
I281073
ssS'JAEDICKE ROBERT'
p348
(dp349
g3
g5
sg4
g5
sg6
g5
sg7
I00
sg8
I-25000
sg9
g5
sg11
g5
sg12
F0.0
sg13
I-44093
sg14
g5
sg15
g5
sg16
g5
sg17
g5
sg18
I108750
sg19
g5
sg20
I431750
sg21
g5
sg22
g5
sg23
I44093
sg24
F0.0
sg25
g5
sg26
I83750
sg27
F0.0
sg28
I431750
ssS'WINOKUR JR. HERBERT S'
p350
(dp351
g3
g5
sg4
g5
sg6
I1413
sg7
I00
sg8
I-25000
sg9
g5
sg11
g5
sg12
F0.0
sg13
g5
sg14
g5
sg15
g5
sg16
g5
sg17
g5
sg18
I108579
sg19
g5
sg20
g5
sg21
g5
sg22
g5
sg23
g5
sg24
F0.0
sg25
g5
sg26
I84992
sg27
F0.0
sg28
g5
ssS'BROWN MICHAEL'
p352
(dp353
g3
I1486
sg4
g5
sg6
I49288
sg7
I00
sg8
g5
sg9
S'michael.brown@enron.com'
p354
sg11
g5
sg12
F0.8748317631224763
sg13
g5
sg14
I761
sg15
g5
sg16
I41
sg17
g5
sg18
g5
sg19
g5
sg20
g5
sg21
I13
sg22
I1
sg23
g5
sg24
F3.3138561533663786
sg25
g5
sg26
I49288
sg27
F2.4390243902439024
sg28
g5
ssS'BADUM JAMES P'
p355
(dp356
g3
g5
sg4
I178980
sg6
I3486
sg7
I00
sg8
g5
sg9
g5
sg11
g5
sg12
F0.0
sg13
g5
sg14
g5
sg15
g5
sg16
g5
sg17
g5
sg18
g5
sg19
g5
sg20
I257817
sg21
g5
sg22
g5
sg23
g5
sg24
F0.0
sg25
g5
sg26
I182466
sg27
F0.0
sg28
I257817
ssS'HUGHES JAMES A'
p357
(dp358
g3
I719
sg4
g5
sg6
g5
sg7
I00
sg8
g5
sg9
S'james.hughes@enron.com'
p359
sg11
g5
sg12
F4.867872044506258
sg13
g5
sg14
I589
sg15
g5
sg16
I34
sg17
g5
sg18
g5
sg19
g5
sg20
I1118394
sg21
I35
sg22
I5
sg23
I363428
sg24
F19.573754397447438
sg25
g5
sg26
g5
sg27
F14.705882352941178
sg28
I754966
ssS'REYNOLDS LAWRENCE'
p360
(dp361
g3
g5
sg4
I51365
sg6
I8409
sg7
I00
sg8
I-200000
sg9
g5
sg11
I156250
sg12
F0.0
sg13
I-140264
sg14
g5
sg15
g5
sg16
g5
sg17
I202052
sg18
g5
sg19
I100000
sg20
I4221891
sg21
g5
sg22
g5
sg23
I201483
sg24
F0.0
sg25
I76399
sg26
I394475
sg27
F0.0
sg28
I4160672
ssS'DIMICHELE RICHARD G'
p362
(dp363
g3
g5
sg4
g5
sg6
I35812
sg7
I00
sg8
g5
sg9
S'richard.dimichele@enron.com'
p364
sg11
I694862
sg12
F0.0
sg13
g5
sg14
g5
sg15
g5
sg16
g5
sg17
I374689
sg18
g5
sg19
I1000000
sg20
I8317782
sg21
g5
sg22
g5
sg23
I126027
sg24
F0.0
sg25
I262788
sg26
I2368151
sg27
F0.0
sg28
I8191755
ssS'BHATNAGAR SANJAY'
p365
(dp366
g96
I523
sg98
g97
sg99
I137864
sg100
I00
sg101
g97
sg102
S'sanjay.bhatnagar@enron.com'
p367
sg103
I0
sg104
g97
sg12
F0.0
sg105
I-2604490
sg106
I463
sg107
g97
sg108
I29
sg109
g97
sg110
g97
sg111
g97
sg112
I15456290
sg113
I1
sg114
I2604490
sg24
F3.4482758620689653
sg115
g97
sg116
I137864
sg27
F3.4482758620689653
sg117
I15456290
ssS'CARTER REBECCA C'
p368
(dp369
g3
I312
sg4
g5
sg6
g5
sg7
I00
sg8
I-159792
sg9
S'rebecca.carter@enron.com'
p370
sg11
I75000
sg12
F9.294871794871796
sg13
I-307301
sg14
I196
sg15
g5
sg16
I15
sg17
I540
sg18
g5
sg19
I300000
sg20
g5
sg21
I29
sg22
I7
sg23
I307301
sg24
F55.96153846153846
sg25
I261809
sg26
I477557
sg27
F46.666666666666664
sg28
g5
ssS'BUCHANAN HAROLD G'
p371
(dp372
g3
I1088
sg4
g5
sg6
I600
sg7
I00
sg8
g5
sg9
S'john.buchanan@enron.com'
p373
sg11
I304805
sg12
F0.0
sg13
g5
sg14
I23
sg15
g5
sg16
I125
sg17
I1215
sg18
g5
sg19
I500000
sg20
I1014505
sg21
I0
sg22
I0
sg23
I189041
sg24
F0.0
sg25
I248017
sg26
I1054637
sg27
F0.0
sg28
I825464
ssS'YEAP SOON'
p374
(dp375
g3
g5
sg4
g5
sg6
I55097
sg7
I00
sg8
g5
sg9
g5
sg11
g5
sg12
F0.0
sg13
g5
sg14
g5
sg15
g5
sg16
g5
sg17
g5
sg18
g5
sg19
g5
sg20
I192758
sg21
g5
sg22
g5
sg23
g5
sg24
F0.0
sg25
g5
sg26
I55097
sg27
F0.0
sg28
I192758
ssS'MURRAY JULIA H'
p376
(dp377
g3
I2192
sg4
g5
sg6
I57580
sg7
I00
sg8
g5
sg9
S'julia.murray@enron.com'
p378
sg11
I125000
sg12
F0.5018248175182481
sg13
g5
sg14
I395
sg15
g5
sg16
I45
sg17
I330
sg18
g5
sg19
I400000
sg20
I597461
sg21
I11
sg22
I2
sg23
I196983
sg24
F4.9462692619626925
sg25
I229284
sg26
I812194
sg27
F4.444444444444445
sg28
I400478
ssS'GARLAND C KEVIN'
p379
(dp380
g3
I209
sg4
g5
sg6
I48405
sg7
I00
sg8
g5
sg9
S'kevin.garland@enron.com'
p381
sg11
I375304
sg12
F4.784688995215311
sg13
g5
sg14
I178
sg15
g5
sg16
I44
sg17
I60814
sg18
g5
sg19
I850000
sg20
I896153
sg21
I10
sg22
I27
sg23
I259907
sg24
F66.14832535885168
sg25
I231946
sg26
I1566469
sg27
F61.36363636363637
sg28
I636246
ssS'DODSON KEITH'
p382
(dp383
g3
I176
sg4
g5
sg6
I28164
sg7
I00
sg8
g5
sg9
S'keith.dodson@enron.com'
p384
sg11
g5
sg12
F5.681818181818182
sg13
g5
sg14
I114
sg15
g5
sg16
I14
sg17
I774
sg18
g5
sg19
I70000
sg20
g5
sg21
I10
sg22
I3
sg23
g5
sg24
F27.11038961038961
sg25
I221003
sg26
I319941
sg27
F21.428571428571427
sg28
g5
ssS'YEAGER F SCOTT'
p385
(dp386
g3
g5
sg4
g5
sg6
I53947
sg7
I01
sg8
g5
sg9
S'scott.yeager@enron.com'
p387
sg11
g5
sg12
F0.0
sg13
g5
sg14
g5
sg15
g5
sg16
g5
sg17
I147950
sg18
g5
sg19
g5
sg20
I11884758
sg21
g5
sg22
g5
sg23
I3576206
sg24
F0.0
sg25
I158403
sg26
I360300
sg27
F0.0
sg28
I8308552
ssS'HIRKO JOSEPH'
p388
(dp389
g3
g5
sg4
I10259
sg6
I77978
sg7
I01
sg8
g5
sg9
S'joe.hirko@enron.com'
p390
sg11
g5
sg12
F0.0
sg13
g5
sg14
g5
sg15
g5
sg16
g5
sg17
I2856
sg18
g5
sg19
g5
sg20
I30766064
sg21
g5
sg22
g5
sg23
g5
sg24
F0.0
sg25
g5
sg26
I91093
sg27
F0.0
sg28
I30766064
ssS'DIETRICH JANET R'
p391
(dp392
g3
I2572
sg4
g5
sg6
I3475
sg7
I00
sg8
g5
sg9
S'janet.dietrich@enron.com'
p393
sg11
I556416
sg12
F11.858475894245723
sg13
g5
sg14
I1902
sg15
g5
sg16
I63
sg17
I473
sg18
g5
sg19
I600000
sg20
I1865087
sg21
I305
sg22
I14
sg23
I315068
sg24
F34.08069811646794
sg25
I250100
sg26
I1410464
sg27
F22.22222222222222
sg28
I1550019
ssS'DERRICK JR. JAMES V'
p394
(dp395
g3
I2181
sg4
g5
sg6
I51124
sg7
I00
sg8
I-1284000
sg9
S'james.derrick@enron.com'
p396
sg11
I484000
sg12
F2.9344337459880787
sg13
I-1787380
sg14
I1401
sg15
g5
sg16
I909
sg17
I7482
sg18
g5
sg19
I800000
sg20
I8831913
sg21
I64
sg22
I20
sg23
I1787380
sg24
F5.1346537679902795
sg25
I492375
sg26
I550981
sg27
F2.2002200220022003
sg28
I8831913
ssS'FREVERT MARK A'
p397
(dp398
g3
I3275
sg4
I6426990
sg6
I86987
sg7
I00
sg8
I-3367011
sg9
S'mark.frevert@enron.com'
p399
sg11
I1617011
sg12
F7.3893129770992365
sg13
g5
sg14
I2979
sg15
I2000000
sg16
I21
sg17
I7427621
sg18
g5
sg19
I2000000
sg20
I14622185
sg21
I242
sg22
I6
sg23
I4188667
sg24
F35.96074154852781
sg25
I1060932
sg26
I17252530
sg27
F28.57142857142857
sg28
I10433518
ssS'PAI LOU L'
p400
(dp401
g3
g5
sg4
g5
sg6
I32047
sg7
I00
sg8
g5
sg9
S'lou.pai@enron.com'
p402
sg11
g5
sg12
F0.0
sg13
g5
sg14
g5
sg15
g5
sg16
g5
sg17
I1829457
sg18
g5
sg19
I1000000
sg20
I23817930
sg21
g5
sg22
g5
sg23
I8453763
sg24
F0.0
sg25
I261879
sg26
I3123383
sg27
F0.0
sg28
I15364167
ssS'BAY FRANKLIN R'
p403
(dp404
g3
g5
sg4
I260455
sg6
I129142
sg7
I00
sg8
I-201641
sg9
S'frank.bay@enron.com'
p405
sg11
g5
sg12
F0.0
sg13
I-82782
sg14
g5
sg15
g5
sg16
g5
sg17
I69
sg18
g5
sg19
I400000
sg20
I63014
sg21
g5
sg22
g5
sg23
I145796
sg24
F0.0
sg25
I239671
sg26
I827696
sg27
F0.0
sg28
g5
ssS'HAYSLETT RODERICK J'
p406
(dp407
g3
I2649
sg4
g5
sg6
g5
sg7
I00
sg8
g5
sg9
S'rod.hayslett@enron.com'
p408
sg11
g5
sg12
F1.3212533031332578
sg13
g5
sg14
I571
sg15
g5
sg16
I1061
sg17
g5
sg18
g5
sg19
g5
sg20
I346663
sg21
I35
sg22
I38
sg23
I346663
sg24
F4.902780164584719
sg25
g5
sg26
g5
sg27
F3.581526861451461
sg28
g5
ssS'FUGH JOHN L'
p409
(dp410
g3
g5
sg4
I50591
sg6
g5
sg7
I00
sg8
g5
sg9
g5
sg11
g5
sg12
F0.0
sg13
g5
sg14
g5
sg15
g5
sg16
g5
sg17
g5
sg18
g5
sg19
g5
sg20
I176378
sg21
g5
sg22
g5
sg23
g5
sg24
F0.0
sg25
g5
sg26
I50591
sg27
F0.0
sg28
I176378
ssS'FALLON JAMES B'
p411
(dp412
g3
I1755
sg4
g5
sg6
I95924
sg7
I00
sg8
g5
sg9
S'jim.fallon@enron.com'
p413
sg11
I374347
sg12
F2.3931623931623935
sg13
g5
sg14
I1604
sg15
g5
sg16
I75
sg17
I401481
sg18
g5
sg19
I2500000
sg20
I2332399
sg21
I42
sg22
I37
sg23
I1392142
sg24
F51.72649572649573
sg25
I304588
sg26
I3676340
sg27
F49.333333333333336
sg28
I940257
ssS'KOENIG MARK E'
p414
(dp415
g3
I2374
sg4
g5
sg6
I127017
sg7
I01
sg8
g5
sg9
S'mark.koenig@enron.com'
p416
sg11
I300000
sg12
F2.232518955349621
sg13
g5
sg14
I2271
sg15
g5
sg16
I61
sg17
I150458
sg18
g5
sg19
I700000
sg20
I1920055
sg21
I53
sg22
I15
sg23
I1248318
sg24
F26.82268288977585
sg25
I309946
sg26
I1587421
sg27
F24.59016393442623
sg28
I671737
ssS'SAVAGE FRANK'
p417
(dp418
g3
g5
sg4
g5
sg6
g5
sg7
I00
sg8
I-121284
sg9
g5
sg11
g5
sg12
F0.0
sg13
g5
sg14
g5
sg15
g5
sg16
g5
sg17
g5
sg18
I125034
sg19
g5
sg20
g5
sg21
g5
sg22
g5
sg23
g5
sg24
F0.0
sg25
g5
sg26
I3750
sg27
F0.0
sg28
g5
ssS'IZZO LAWRENCE L'
p419
(dp420
g3
I496
sg4
g5
sg6
I28093
sg7
I00
sg8
g5
sg9
S'larry.izzo@enron.com'
p421
sg11
I312500
sg12
F5.64516129032258
sg13
g5
sg14
I437
sg15
g5
sg16
I19
sg17
I1553729
sg18
g5
sg19
g5
sg20
I5819980
sg21
I28
sg22
I5
sg23
I3654808
sg24
F31.96095076400679
sg25
I85274
sg26
I1979596
sg27
F26.31578947368421
sg28
I2165172
ssS'TILNEY ELIZABETH A'
p422
(dp423
g3
I460
sg4
g5
sg6
g5
sg7
I00
sg8
I-575000
sg9
S'elizabeth.tilney@enron.com'
p424
sg11
I275000
sg12
F2.1739130434782608
sg13
g5
sg14
I379
sg15
g5
sg16
I19
sg17
I152055
sg18
g5
sg19
I300000
sg20
I1168042
sg21
I10
sg22
I11
sg23
I576792
sg24
F60.068649885583525
sg25
I247338
sg26
I399393
sg27
F57.89473684210527
sg28
I591250
ssS'MARTIN AMANDA K'
p425
(dp426
g3
I1522
sg4
I85430
sg6
I8211
sg7
I00
sg8
g5
sg9
S'a..martin@enron.com'
p427
sg11
I5145434
sg12
F0.5256241787122208
sg13
g5
sg14
I477
sg15
g5
sg16
I230
sg17
I2818454
sg18
g5
sg19
g5
sg20
I2070306
sg21
I8
sg22
I0
sg23
g5
sg24
F0.5256241787122208
sg25
I349487
sg26
I8407016
sg27
F0.0
sg28
I2070306
ssS'BUY RICHARD B'
p428
(dp429
g3
I3523
sg4
I649584
sg6
g5
sg7
I00
sg8
I-694862
sg9
S'rick.buy@enron.com'
p430
sg11
I769862
sg12
F4.428044280442804
sg13
g5
sg14
I2333
sg15
g5
sg16
I1053
sg17
I400572
sg18
g5
sg19
I900000
sg20
I3444470
sg21
I156
sg22
I71
sg23
I901657
sg24
F11.170684356416213
sg25
I330546
sg26
I2355702
sg27
F6.7426400759734095
sg28
I2542813
ssS'GRAMM WENDY L'
p431
(dp432
g3
g5
sg4
g5
sg6
g5
sg7
I00
sg8
g5
sg9
g5
sg11
g5
sg12
F0.0
sg13
g5
sg14
g5
sg15
g5
sg16
g5
sg17
g5
sg18
I119292
sg19
g5
sg20
g5
sg21
g5
sg22
g5
sg23
g5
sg24
F0.0
sg25
g5
sg26
I119292
sg27
F0.0
sg28
g5
ssS'CAUSEY RICHARD A'
p433
(dp434
g3
I1892
sg4
g5
sg6
I30674
sg7
I01
sg8
I-235000
sg9
S'richard.causey@enron.com'
p435
sg11
I350000
sg12
F3.06553911205074
sg13
g5
sg14
I1585
sg15
g5
sg16
I49
sg17
I307895
sg18
g5
sg19
I1000000
sg20
I2502063
sg21
I58
sg22
I12
sg23
I2502063
sg24
F27.555335030418085
sg25
I415189
sg26
I1868758
sg27
F24.489795918367346
sg28
g5
ssS'TAYLOR MITCHELL S'
p436
(dp437
g3
I533
sg4
I227449
sg6
g5
sg7
I00
sg8
g5
sg9
S'mitchell.taylor@enron.com'
p438
sg11
g5
sg12
F0.0
sg13
g5
sg14
I300
sg15
g5
sg16
I29
sg17
g5
sg18
g5
sg19
I600000
sg20
I3745048
sg21
I0
sg22
I0
sg23
I563798
sg24
F0.0
sg25
I265214
sg26
I1092663
sg27
F0.0
sg28
I3181250
ssS'DONAHUE JR JEFFREY M'
p439
(dp440
g3
I865
sg4
g5
sg6
I96268
sg7
I00
sg8
I-300000
sg9
S'jeff.donahue@enron.com'
p441
sg11
g5
sg12
F21.734104046242773
sg13
g5
sg14
I772
sg15
g5
sg16
I22
sg17
I891
sg18
g5
sg19
I800000
sg20
I1080988
sg21
I188
sg22
I11
sg23
I315068
sg24
F71.73410404624278
sg25
I278601
sg26
I875760
sg27
F50.0
sg28
I765920
ssS'GLISAN JR BEN F'
p442
(dp443
g3
I873
sg4
g5
sg6
I125978
sg7
I01
sg8
g5
sg9
S'ben.glisan@enron.com'
p444
sg11
I71023
sg12
F5.956471935853378
sg13
g5
sg14
I874
sg15
g5
sg16
I16
sg17
I200308
sg18
g5
sg19
I600000
sg20
I778546
sg21
I52
sg22
I6
sg23
I393818
sg24
F43.45647193585338
sg25
I274975
sg26
I1272284
sg27
F37.5
sg28
I384728
ss.